target datalayout = "e-m:e-p270:32:32-p271:32:32-p272:64:64-i64:64-i128:128-f80:128-n8:16:32:64-S128"
target triple = "x86_64-pc-linux-gnu"

; Function Attrs: mustprogress nounwind uwtable
define hidden noundef zeroext i1 @_ZNK13ReplacedNodes12is_dominatorEPK4NodePS0_(ptr noundef nonnull align 8 dereferenceable(8) %0, ptr noundef %1, ptr noundef %2) #1 align 2 {
  %4 = alloca i1, align 1
  %5 = alloca ptr, align 8
  %6 = alloca ptr, align 8
  %7 = alloca ptr, align 8
  %8 = alloca i32, align 4
  store ptr %0, ptr %5, align 8
  store ptr %1, ptr %6, align 8
  store ptr %2, ptr %7, align 8
  store i32 0, ptr %8, align 4
  br label %9

9:                                                ; preds = %24, %3
  %10 = load ptr, ptr %7, align 8
  %11 = load ptr, ptr %6, align 8
  %12 = icmp ne ptr %10, %11
  br i1 %12, label %13, label %25

13:                                               ; preds = %9
  %14 = load ptr, ptr %7, align 8
  %15 = call noundef ptr @_ZN6IfNode10up_one_domEP4Nodeb(ptr noundef %14, i1 noundef zeroext false)
  store ptr %15, ptr %7, align 8
  %16 = load i32, ptr %8, align 4
  %17 = add nsw i32 %16, 1
  store i32 %17, ptr %8, align 4
  %18 = load i32, ptr %8, align 4
  %19 = icmp sge i32 %18, 100
  br i1 %19, label %23, label %20

20:                                               ; preds = %13
  %21 = load ptr, ptr %7, align 8
  %22 = icmp eq ptr %21, null
  br i1 %22, label %23, label %24

23:                                               ; preds = %20, %13
  store i1 false, ptr %4, align 1
  br label %26

24:                                               ; preds = %20
  br label %9, !llvm.loop !22

25:                                               ; preds = %9
  store i1 true, ptr %4, align 1
  br label %26

26:                                               ; preds = %25, %23
  %27 = load i1, ptr %4, align 1
  ret i1 %27
}