; Function Attrs: mustprogress nounwind uwtable
define hidden noundef zeroext i1 @_ZNK13ReplacedNodes12is_dominatorEPK4NodePS0_(ptr nocapture noundef nonnull readnone align 8 dereferenceable(8) %0, ptr noundef readnone %1, ptr noundef %2) local_unnamed_addr #0 align 2 {
  br label %4

4:                                                ; preds = %5, %3
  %.07 = phi ptr [ %2, %3 ], [ %6, %5 ]
  %.0 = phi i32 [ 0, %3 ], [ %7, %5 ]
  %.not = icmp eq ptr %.07, %1
  br i1 %.not, label %10, label %5

5:                                                ; preds = %4
  %6 = tail call noundef ptr @_ZN6IfNode10up_one_domEP4Nodeb(ptr noundef %.07, i1 noundef zeroext false) #8
  %7 = add nuw nsw i32 %.0, 1
  %8 = icmp ugt i32 %.0, 98
  %9 = icmp eq ptr %6, null
  %or.cond = or i1 %8, %9
  br i1 %or.cond, label %10, label %4, !llvm.loop !14

10:                                               ; preds = %4, %5
  ret i1 %.not
}